target datalayout = "e-m:e-p270:32:32-p271:32:32-p272:64:64-i64:64-i128:128-f80:128-n8:16:32:64-S128"
target triple = "x86_64-pc-linux-gnu"

%struct.mbedtls_mpi = type { ptr, i16, i16 }

@__const.mbedtls_rsa_deduce_primes.primes = private unnamed_addr constant [54 x i8] c"\02\03\05\07\0B\0D\11\13\17\1D\1F%)+/5;=CGIOSYaegkmq\7F\83\89\8B\95\97\9D\A3\A7\AD\B3\B5\BF\C1\C5\C7\D3\DF\E3\E5\E9\EF\F1\FB", align 16

; Function Attrs: nounwind uwtable
define hidden i32 @mbedtls_rsa_deduce_primes(ptr noundef %0, ptr noundef %1, ptr noundef %2, ptr noundef %3, ptr noundef %4) #0 {
  %6 = alloca i32, align 4
  %7 = alloca ptr, align 8
  %8 = alloca ptr, align 8
  %9 = alloca ptr, align 8
  %10 = alloca ptr, align 8
  %11 = alloca ptr, align 8
  %12 = alloca i32, align 4
  %13 = alloca i16, align 2
  %14 = alloca i16, align 2
  %15 = alloca i16, align 2
  %16 = alloca %struct.mbedtls_mpi, align 8
  %17 = alloca %struct.mbedtls_mpi, align 8
  %18 = alloca [54 x i8], align 16
  %19 = alloca i64, align 8
  %20 = alloca i32, align 4
  store ptr %0, ptr %7, align 8, !tbaa !3
  store ptr %1, ptr %8, align 8, !tbaa !3
  store ptr %2, ptr %9, align 8, !tbaa !3
  store ptr %3, ptr %10, align 8, !tbaa !3
  store ptr %4, ptr %11, align 8, !tbaa !3
  call void @llvm.lifetime.start.p0(i64 4, ptr %12) #4
  store i32 0, ptr %12, align 4, !tbaa !8
  call void @llvm.lifetime.start.p0(i64 2, ptr %13) #4
  call void @llvm.lifetime.start.p0(i64 2, ptr %14) #4
  call void @llvm.lifetime.start.p0(i64 2, ptr %15) #4
  call void @llvm.lifetime.start.p0(i64 16, ptr %16) #4
  call void @llvm.lifetime.start.p0(i64 16, ptr %17) #4
  call void @llvm.lifetime.start.p0(i64 54, ptr %18) #4
  call void @llvm.memcpy.p0.p0.i64(ptr align 16 %18, ptr align 16 @__const.mbedtls_rsa_deduce_primes.primes, i64 54, i1 false)
  call void @llvm.lifetime.start.p0(i64 8, ptr %19) #4
  store i64 54, ptr %19, align 8, !tbaa !10
  %21 = load ptr, ptr %10, align 8, !tbaa !3
  %22 = icmp eq ptr %21, null
  br i1 %22, label %36, label %23

23:                                               ; preds = %5
  %24 = load ptr, ptr %11, align 8, !tbaa !3
  %25 = icmp eq ptr %24, null
  br i1 %25, label %36, label %26

26:                                               ; preds = %23
  %27 = load ptr, ptr %10, align 8, !tbaa !3
  %28 = getelementptr inbounds nuw %struct.mbedtls_mpi, ptr %27, i32 0, i32 0
  %29 = load ptr, ptr %28, align 8, !tbaa !12
  %30 = icmp ne ptr %29, null
  br i1 %30, label %36, label %31

31:                                               ; preds = %26
  %32 = load ptr, ptr %11, align 8, !tbaa !3
  %33 = getelementptr inbounds nuw %struct.mbedtls_mpi, ptr %32, i32 0, i32 0
  %34 = load ptr, ptr %33, align 8, !tbaa !12
  %35 = icmp ne ptr %34, null
  br i1 %35, label %36, label %37

36:                                               ; preds = %31, %26, %23, %5
  store i32 -4, ptr %6, align 4
  store i32 1, ptr %20, align 4
  br label %224

37:                                               ; preds = %31
  %38 = load ptr, ptr %7, align 8, !tbaa !3
  %39 = call i32 @mbedtls_mpi_cmp_int(ptr noundef %38, i64 noundef 0)
  %40 = icmp sle i32 %39, 0
  br i1 %40, label %59, label %41

41:                                               ; preds = %37
  %42 = load ptr, ptr %9, align 8, !tbaa !3
  %43 = call i32 @mbedtls_mpi_cmp_int(ptr noundef %42, i64 noundef 1)
  %44 = icmp sle i32 %43, 0
  br i1 %44, label %59, label %45

45:                                               ; preds = %41
  %46 = load ptr, ptr %9, align 8, !tbaa !3
  %47 = load ptr, ptr %7, align 8, !tbaa !3
  %48 = call i32 @mbedtls_mpi_cmp_mpi(ptr noundef %46, ptr noundef %47)
  %49 = icmp sge i32 %48, 0
  br i1 %49, label %59, label %50

50:                                               ; preds = %45
  %51 = load ptr, ptr %8, align 8, !tbaa !3
  %52 = call i32 @mbedtls_mpi_cmp_int(ptr noundef %51, i64 noundef 1)
  %53 = icmp sle i32 %52, 0
  br i1 %53, label %59, label %54

54:                                               ; preds = %50
  %55 = load ptr, ptr %8, align 8, !tbaa !3
  %56 = load ptr, ptr %7, align 8, !tbaa !3
  %57 = call i32 @mbedtls_mpi_cmp_mpi(ptr noundef %55, ptr noundef %56)
  %58 = icmp sge i32 %57, 0
  br i1 %58, label %59, label %60

59:                                               ; preds = %54, %50, %45, %41, %37
  store i32 -4, ptr %6, align 4
  store i32 1, ptr %20, align 4
  br label %224

60:                                               ; preds = %54
  call void @mbedtls_mpi_init(ptr noundef %17)
  call void @mbedtls_mpi_init(ptr noundef %16)
  br label %61

61:                                               ; preds = %60
  %62 = load ptr, ptr %9, align 8, !tbaa !3
  %63 = load ptr, ptr %8, align 8, !tbaa !3
  %64 = call i32 @mbedtls_mpi_mul_mpi(ptr noundef %16, ptr noundef %62, ptr noundef %63)
  store i32 %64, ptr %12, align 4, !tbaa !8
  %65 = icmp ne i32 %64, 0
  br i1 %65, label %66, label %67

66:                                               ; preds = %61
  br label %222

67:                                               ; preds = %61
  br label %68

68:                                               ; preds = %67
  br label %69

69:                                               ; preds = %68
  br label %70

70:                                               ; preds = %69
  %71 = call i32 @mbedtls_mpi_sub_int(ptr noundef %16, ptr noundef %16, i64 noundef 1)
  store i32 %71, ptr %12, align 4, !tbaa !8
  %72 = icmp ne i32 %71, 0
  br i1 %72, label %73, label %74

73:                                               ; preds = %70
  br label %222

74:                                               ; preds = %70
  br label %75

75:                                               ; preds = %74
  br label %76

76:                                               ; preds = %75
  %77 = call i64 @mbedtls_mpi_lsb(ptr noundef %16)
  %78 = trunc i64 %77 to i16
  store i16 %78, ptr %15, align 2, !tbaa !16
  %79 = zext i16 %78 to i32
  %80 = icmp eq i32 %79, 0
  br i1 %80, label %81, label %82

81:                                               ; preds = %76
  store i32 -4, ptr %12, align 4, !tbaa !8
  br label %222

82:                                               ; preds = %76
  br label %83

83:                                               ; preds = %82
  %84 = load i16, ptr %15, align 2, !tbaa !16
  %85 = zext i16 %84 to i64
  %86 = call i32 @mbedtls_mpi_shift_r(ptr noundef %16, i64 noundef %85)
  store i32 %86, ptr %12, align 4, !tbaa !8
  %87 = icmp ne i32 %86, 0
  br i1 %87, label %88, label %89

88:                                               ; preds = %83
  br label %222

89:                                               ; preds = %83
  br label %90

90:                                               ; preds = %89
  br label %91

91:                                               ; preds = %90
  store i16 0, ptr %13, align 2, !tbaa !16
  %92 = load ptr, ptr %7, align 8, !tbaa !3
  %93 = getelementptr inbounds nuw %struct.mbedtls_mpi, ptr %92, i32 0, i32 0
  %94 = load ptr, ptr %93, align 8, !tbaa !12
  %95 = getelementptr inbounds i64, ptr %94, i64 0
  %96 = load i64, ptr %95, align 8, !tbaa !10
  %97 = urem i64 %96, 8
  %98 = icmp eq i64 %97, 1
  br i1 %98, label %99, label %100

99:                                               ; preds = %91
  store i16 1, ptr %13, align 2, !tbaa !16
  br label %100

100:                                              ; preds = %99, %91
  br label %101

101:                                              ; preds = %218, %100
  %102 = load i16, ptr %13, align 2, !tbaa !16
  %103 = zext i16 %102 to i64
  %104 = icmp ult i64 %103, 54
  br i1 %104, label %105, label %221

105:                                              ; preds = %101
  br label %106

106:                                              ; preds = %105
  %107 = load i16, ptr %13, align 2, !tbaa !16
  %108 = zext i16 %107 to i64
  %109 = getelementptr inbounds nuw [54 x i8], ptr %18, i64 0, i64 %108
  %110 = load i8, ptr %109, align 1, !tbaa !17
  %111 = zext i8 %110 to i64
  %112 = call i32 @mbedtls_mpi_lset(ptr noundef %17, i64 noundef %111)
  store i32 %112, ptr %12, align 4, !tbaa !8
  %113 = icmp ne i32 %112, 0
  br i1 %113, label %114, label %115

114:                                              ; preds = %106
  br label %222

115:                                              ; preds = %106
  br label %116

116:                                              ; preds = %115
  br label %117

117:                                              ; preds = %116
  br label %118

118:                                              ; preds = %117
  %119 = load ptr, ptr %10, align 8, !tbaa !3
  %120 = load ptr, ptr %7, align 8, !tbaa !3
  %121 = call i32 @mbedtls_mpi_gcd(ptr noundef %119, ptr noundef %17, ptr noundef %120)
  store i32 %121, ptr %12, align 4, !tbaa !8
  %122 = icmp ne i32 %121, 0
  br i1 %122, label %123, label %124

123:                                              ; preds = %118
  br label %222

124:                                              ; preds = %118
  br label %125

125:                                              ; preds = %124
  br label %126

126:                                              ; preds = %125
  %127 = load ptr, ptr %10, align 8, !tbaa !3
  %128 = call i32 @mbedtls_mpi_cmp_int(ptr noundef %127, i64 noundef 1)
  %129 = icmp ne i32 %128, 0
  br i1 %129, label %130, label %131

130:                                              ; preds = %126
  br label %218

131:                                              ; preds = %126
  br label %132

132:                                              ; preds = %131
  %133 = load ptr, ptr %7, align 8, !tbaa !3
  %134 = load ptr, ptr %11, align 8, !tbaa !3
  %135 = call i32 @mbedtls_mpi_exp_mod(ptr noundef %17, ptr noundef %17, ptr noundef %16, ptr noundef %133, ptr noundef %134)
  store i32 %135, ptr %12, align 4, !tbaa !8
  %136 = icmp ne i32 %135, 0
  br i1 %136, label %137, label %138

137:                                              ; preds = %132
  br label %222

138:                                              ; preds = %132
  br label %139

139:                                              ; preds = %138
  br label %140

140:                                              ; preds = %139
  store i16 1, ptr %14, align 2, !tbaa !16
  br label %141

141:                                              ; preds = %210, %140
  %142 = load i16, ptr %14, align 2, !tbaa !16
  %143 = zext i16 %142 to i32
  %144 = load i16, ptr %15, align 2, !tbaa !16
  %145 = zext i16 %144 to i32
  %146 = icmp sle i32 %143, %145
  br i1 %146, label %147, label %213

147:                                              ; preds = %141
  %148 = call i32 @mbedtls_mpi_cmp_int(ptr noundef %17, i64 noundef 1)
  %149 = icmp eq i32 %148, 0
  br i1 %149, label %150, label %151

150:                                              ; preds = %147
  br label %213

151:                                              ; preds = %147
  br label %152

152:                                              ; preds = %151
  %153 = call i32 @mbedtls_mpi_add_int(ptr noundef %17, ptr noundef %17, i64 noundef 1)
  store i32 %153, ptr %12, align 4, !tbaa !8
  %154 = icmp ne i32 %153, 0
  br i1 %154, label %155, label %156

155:                                              ; preds = %152
  br label %222

156:                                              ; preds = %152
  br label %157

157:                                              ; preds = %156
  br label %158

158:                                              ; preds = %157
  br label %159

159:                                              ; preds = %158
  %160 = load ptr, ptr %10, align 8, !tbaa !3
  %161 = load ptr, ptr %7, align 8, !tbaa !3
  %162 = call i32 @mbedtls_mpi_gcd(ptr noundef %160, ptr noundef %17, ptr noundef %161)
  store i32 %162, ptr %12, align 4, !tbaa !8
  %163 = icmp ne i32 %162, 0
  br i1 %163, label %164, label %165

164:                                              ; preds = %159
  br label %222

165:                                              ; preds = %159
  br label %166

166:                                              ; preds = %165
  br label %167

167:                                              ; preds = %166
  %168 = load ptr, ptr %10, align 8, !tbaa !3
  %169 = call i32 @mbedtls_mpi_cmp_int(ptr noundef %168, i64 noundef 1)
  %170 = icmp eq i32 %169, 1
  br i1 %170, label %171, label %187

171:                                              ; preds = %167
  %172 = load ptr, ptr %10, align 8, !tbaa !3
  %173 = load ptr, ptr %7, align 8, !tbaa !3
  %174 = call i32 @mbedtls_mpi_cmp_mpi(ptr noundef %172, ptr noundef %173)
  %175 = icmp eq i32 %174, -1
  br i1 %175, label %176, label %187

176:                                              ; preds = %171
  br label %177

177:                                              ; preds = %176
  %178 = load ptr, ptr %11, align 8, !tbaa !3
  %179 = load ptr, ptr %7, align 8, !tbaa !3
  %180 = load ptr, ptr %10, align 8, !tbaa !3
  %181 = call i32 @mbedtls_mpi_div_mpi(ptr noundef %178, ptr noundef null, ptr noundef %179, ptr noundef %180)
  store i32 %181, ptr %12, align 4, !tbaa !8
  %182 = icmp ne i32 %181, 0
  br i1 %182, label %183, label %184

183:                                              ; preds = %177
  br label %222

184:                                              ; preds = %177
  br label %185

185:                                              ; preds = %184
  br label %186

186:                                              ; preds = %185
  br label %222

187:                                              ; preds = %171, %167
  br label %188

188:                                              ; preds = %187
  %189 = call i32 @mbedtls_mpi_sub_int(ptr noundef %17, ptr noundef %17, i64 noundef 1)
  store i32 %189, ptr %12, align 4, !tbaa !8
  %190 = icmp ne i32 %189, 0
  br i1 %190, label %191, label %192

191:                                              ; preds = %188
  br label %222

192:                                              ; preds = %188
  br label %193

193:                                              ; preds = %192
  br label %194

194:                                              ; preds = %193
  br label %195

195:                                              ; preds = %194
  %196 = call i32 @mbedtls_mpi_mul_mpi(ptr noundef %17, ptr noundef %17, ptr noundef %17)
  store i32 %196, ptr %12, align 4, !tbaa !8
  %197 = icmp ne i32 %196, 0
  br i1 %197, label %198, label %199

198:                                              ; preds = %195
  br label %222

199:                                              ; preds = %195
  br label %200

200:                                              ; preds = %199
  br label %201

201:                                              ; preds = %200
  br label %202

202:                                              ; preds = %201
  %203 = load ptr, ptr %7, align 8, !tbaa !3
  %204 = call i32 @mbedtls_mpi_mod_mpi(ptr noundef %17, ptr noundef %17, ptr noundef %203)
  store i32 %204, ptr %12, align 4, !tbaa !8
  %205 = icmp ne i32 %204, 0
  br i1 %205, label %206, label %207

206:                                              ; preds = %202
  br label %222

207:                                              ; preds = %202
  br label %208

208:                                              ; preds = %207
  br label %209

209:                                              ; preds = %208
  br label %210

210:                                              ; preds = %209
  %211 = load i16, ptr %14, align 2, !tbaa !16
  %212 = add i16 %211, 1
  store i16 %212, ptr %14, align 2, !tbaa !16
  br label %141, !llvm.loop !18

213:                                              ; preds = %150, %141
  %214 = call i32 @mbedtls_mpi_cmp_int(ptr noundef %17, i64 noundef 1)
  %215 = icmp ne i32 %214, 0
  br i1 %215, label %216, label %217

216:                                              ; preds = %213
  br label %221

217:                                              ; preds = %213
  br label %218

218:                                              ; preds = %217, %130
  %219 = load i16, ptr %13, align 2, !tbaa !16
  %220 = add i16 %219, 1
  store i16 %220, ptr %13, align 2, !tbaa !16
  br label %101, !llvm.loop !20

221:                                              ; preds = %216, %101
  store i32 -4, ptr %12, align 4, !tbaa !8
  br label %222

222:                                              ; preds = %221, %206, %198, %191, %186, %183, %164, %155, %137, %123, %114, %88, %81, %73, %66
  call void @mbedtls_mpi_free(ptr noundef %17)
  call void @mbedtls_mpi_free(ptr noundef %16)
  %223 = load i32, ptr %12, align 4, !tbaa !8
  store i32 %223, ptr %6, align 4
  store i32 1, ptr %20, align 4
  br label %224

224:                                              ; preds = %222, %59, %36
  call void @llvm.lifetime.end.p0(i64 8, ptr %19) #4
  call void @llvm.lifetime.end.p0(i64 54, ptr %18) #4
  call void @llvm.lifetime.end.p0(i64 16, ptr %17) #4
  call void @llvm.lifetime.end.p0(i64 16, ptr %16) #4
  call void @llvm.lifetime.end.p0(i64 2, ptr %15) #4
  call void @llvm.lifetime.end.p0(i64 2, ptr %14) #4
  call void @llvm.lifetime.end.p0(i64 2, ptr %13) #4
  call void @llvm.lifetime.end.p0(i64 4, ptr %12) #4
  %225 = load i32, ptr %6, align 4
  ret i32 %225
}