; Function Attrs: nounwind uwtable
define hidden i32 @mbedtls_rsa_deduce_primes(ptr noundef %0, ptr noundef %1, ptr noundef %2, ptr noundef %3, ptr noundef %4) local_unnamed_addr #0 {
  %6 = alloca %struct.mbedtls_mpi, align 8
  %7 = alloca %struct.mbedtls_mpi, align 8
  call void @llvm.lifetime.start.p0(i64 16, ptr nonnull %6) #3
  call void @llvm.lifetime.start.p0(i64 16, ptr nonnull %7) #3
  %8 = icmp eq ptr %3, null
  %9 = icmp eq ptr %4, null
  %or.cond = or i1 %8, %9
  br i1 %or.cond, label %86, label %10

10:                                               ; preds = %5
  %11 = load ptr, ptr %3, align 8, !tbaa !3
  %.not = icmp eq ptr %11, null
  br i1 %.not, label %12, label %86

12:                                               ; preds = %10
  %13 = load ptr, ptr %4, align 8, !tbaa !3
  %.not55 = icmp eq ptr %13, null
  br i1 %.not55, label %14, label %86

14:                                               ; preds = %12
  %15 = tail call i32 @mbedtls_mpi_cmp_int(ptr noundef %0, i64 noundef 0) #3
  %16 = icmp slt i32 %15, 1
  br i1 %16, label %86, label %17

17:                                               ; preds = %14
  %18 = tail call i32 @mbedtls_mpi_cmp_int(ptr noundef %2, i64 noundef 1) #3
  %19 = icmp slt i32 %18, 1
  br i1 %19, label %86, label %20

20:                                               ; preds = %17
  %21 = tail call i32 @mbedtls_mpi_cmp_mpi(ptr noundef %2, ptr noundef %0) #3
  %22 = icmp sgt i32 %21, -1
  br i1 %22, label %86, label %23

23:                                               ; preds = %20
  %24 = tail call i32 @mbedtls_mpi_cmp_int(ptr noundef %1, i64 noundef 1) #3
  %25 = icmp slt i32 %24, 1
  br i1 %25, label %86, label %26

26:                                               ; preds = %23
  %27 = tail call i32 @mbedtls_mpi_cmp_mpi(ptr noundef %1, ptr noundef %0) #3
  %28 = icmp sgt i32 %27, -1
  br i1 %28, label %86, label %29

29:                                               ; preds = %26
  call void @mbedtls_mpi_init(ptr noundef nonnull %7) #3
  call void @mbedtls_mpi_init(ptr noundef nonnull %6) #3
  %30 = call i32 @mbedtls_mpi_mul_mpi(ptr noundef nonnull %6, ptr noundef %2, ptr noundef %1) #3
  %.not56 = icmp eq i32 %30, 0
  br i1 %.not56, label %31, label %.loopexit

31:                                               ; preds = %29
  %32 = call i32 @mbedtls_mpi_sub_int(ptr noundef nonnull %6, ptr noundef nonnull %6, i64 noundef 1) #3
  %.not57 = icmp eq i32 %32, 0
  br i1 %.not57, label %33, label %.loopexit

33:                                               ; preds = %31
  %34 = call i64 @mbedtls_mpi_lsb(ptr noundef nonnull %6) #3
  %35 = and i64 %34, 65535
  %36 = icmp eq i64 %35, 0
  br i1 %36, label %.loopexit, label %37

37:                                               ; preds = %33
  %38 = and i64 %34, 65535
  %39 = call i32 @mbedtls_mpi_shift_r(ptr noundef nonnull %6, i64 noundef %38) #3
  %.not58 = icmp eq i32 %39, 0
  br i1 %.not58, label %.split.preheader, label %.loopexit

.split.preheader:                                 ; preds = %37
  %40 = load ptr, ptr %0, align 8, !tbaa !3
  %41 = load i64, ptr %40, align 8, !tbaa !10
  %42 = and i64 %41, 7
  %43 = icmp eq i64 %42, 1
  %44 = trunc i64 %34 to i16
  %45 = zext i1 %43 to i64
  %46 = getelementptr inbounds nuw [54 x i8], ptr @__const.mbedtls_rsa_deduce_primes.primes, i64 0, i64 %45
  %47 = load i8, ptr %46, align 1, !tbaa !12
  %48 = zext i8 %47 to i64
  %49 = call i32 @mbedtls_mpi_lset(ptr noundef nonnull %7, i64 noundef %48) #3
  %.not5988 = icmp eq i32 %49, 0
  br i1 %.not5988, label %.lr.ph, label %.loopexit

.lr.ph:                                           ; preds = %.split.preheader
  %spec.store.select = zext i1 %43 to i16
  br label %50

50:                                               ; preds = %.lr.ph, %.split.backedge
  %.0397589 = phi i16 [ %spec.store.select, %.lr.ph ], [ %.03975.be, %.split.backedge ]
  %51 = call i32 @mbedtls_mpi_gcd(ptr noundef nonnull %3, ptr noundef nonnull %7, ptr noundef nonnull %0) #3
  %.not60 = icmp eq i32 %51, 0
  br i1 %.not60, label %52, label %.loopexit

52:                                               ; preds = %50
  %53 = call i32 @mbedtls_mpi_cmp_int(ptr noundef nonnull %3, i64 noundef 1) #3
  %.not61 = icmp eq i32 %53, 0
  br i1 %.not61, label %54, label %80

54:                                               ; preds = %52
  %55 = call i32 @mbedtls_mpi_exp_mod(ptr noundef nonnull %7, ptr noundef nonnull %7, ptr noundef nonnull %6, ptr noundef nonnull %0, ptr noundef nonnull %4) #3
  %.not62 = icmp eq i32 %55, 0
  br i1 %.not62, label %.preheader, label %.loopexit

56:                                               ; preds = %76
  %57 = add i16 %.03873, 1
  %.not63 = icmp ugt i16 %57, %44
  br i1 %.not63, label %._crit_edge, label %.preheader, !llvm.loop !13

.preheader:                                       ; preds = %54, %56
  %.03873 = phi i16 [ %57, %56 ], [ 1, %54 ]
  %58 = call i32 @mbedtls_mpi_cmp_int(ptr noundef nonnull %7, i64 noundef 1) #3
  %59 = icmp eq i32 %58, 0
  br i1 %59, label %._crit_edge, label %60

60:                                               ; preds = %.preheader
  %61 = call i32 @mbedtls_mpi_add_int(ptr noundef nonnull %7, ptr noundef nonnull %7, i64 noundef 1) #3
  %.not64 = icmp eq i32 %61, 0
  br i1 %.not64, label %62, label %.loopexit

62:                                               ; preds = %60
  %63 = call i32 @mbedtls_mpi_gcd(ptr noundef nonnull %3, ptr noundef nonnull %7, ptr noundef nonnull %0) #3
  %.not65 = icmp eq i32 %63, 0
  br i1 %.not65, label %64, label %.loopexit

64:                                               ; preds = %62
  %65 = call i32 @mbedtls_mpi_cmp_int(ptr noundef nonnull %3, i64 noundef 1) #3
  %66 = icmp eq i32 %65, 1
  br i1 %66, label %67, label %72

67:                                               ; preds = %64
  %68 = call i32 @mbedtls_mpi_cmp_mpi(ptr noundef nonnull %3, ptr noundef nonnull %0) #3
  %69 = icmp eq i32 %68, -1
  br i1 %69, label %70, label %72

70:                                               ; preds = %67
  %71 = call i32 @mbedtls_mpi_div_mpi(ptr noundef nonnull %4, ptr noundef null, ptr noundef nonnull %0, ptr noundef nonnull %3) #3
  br label %.loopexit

72:                                               ; preds = %64, %67
  %73 = call i32 @mbedtls_mpi_sub_int(ptr noundef nonnull %7, ptr noundef nonnull %7, i64 noundef 1) #3
  %.not66 = icmp eq i32 %73, 0
  br i1 %.not66, label %74, label %.loopexit

74:                                               ; preds = %72
  %75 = call i32 @mbedtls_mpi_mul_mpi(ptr noundef nonnull %7, ptr noundef nonnull %7, ptr noundef nonnull %7) #3
  %.not67 = icmp eq i32 %75, 0
  br i1 %.not67, label %76, label %.loopexit

76:                                               ; preds = %74
  %77 = call i32 @mbedtls_mpi_mod_mpi(ptr noundef nonnull %7, ptr noundef nonnull %7, ptr noundef nonnull %0) #3
  %.not68 = icmp eq i32 %77, 0
  br i1 %.not68, label %56, label %.loopexit

._crit_edge:                                      ; preds = %56, %.preheader
  %78 = call i32 @mbedtls_mpi_cmp_int(ptr noundef nonnull %7, i64 noundef 1) #3
  %.not69 = icmp eq i32 %78, 0
  %79 = icmp samesign ult i16 %.0397589, 53
  %or.cond80 = and i1 %.not69, %79
  br i1 %or.cond80, label %.split.backedge, label %.loopexit

80:                                               ; preds = %52
  %.old79 = icmp samesign ult i16 %.0397589, 53
  br i1 %.old79, label %.split.backedge, label %.loopexit

.split.backedge:                                  ; preds = %80, %._crit_edge
  %.03975.be = add nuw nsw i16 %.0397589, 1
  %81 = zext nneg i16 %.03975.be to i64
  %82 = getelementptr inbounds nuw [54 x i8], ptr @__const.mbedtls_rsa_deduce_primes.primes, i64 0, i64 %81
  %83 = load i8, ptr %82, align 1, !tbaa !12
  %84 = zext i8 %83 to i64
  %85 = call i32 @mbedtls_mpi_lset(ptr noundef nonnull %7, i64 noundef %84) #3
  %.not59 = icmp eq i32 %85, 0
  br i1 %.not59, label %50, label %.loopexit, !llvm.loop !15

.loopexit:                                        ; preds = %80, %._crit_edge, %54, %50, %.split.backedge, %76, %74, %72, %62, %60, %.split.preheader, %33, %70, %37, %31, %29
  %.037 = phi i32 [ %30, %29 ], [ %32, %31 ], [ %39, %37 ], [ %71, %70 ], [ -4, %33 ], [ %49, %.split.preheader ], [ %77, %76 ], [ %75, %74 ], [ %73, %72 ], [ %63, %62 ], [ %61, %60 ], [ %85, %.split.backedge ], [ %51, %50 ], [ %55, %54 ], [ -4, %._crit_edge ], [ -4, %80 ]
  call void @mbedtls_mpi_free(ptr noundef nonnull %7) #3
  call void @mbedtls_mpi_free(ptr noundef nonnull %6) #3
  br label %86

86:                                               ; preds = %14, %17, %20, %23, %26, %5, %10, %12, %.loopexit
  %.0 = phi i32 [ %.037, %.loopexit ], [ -4, %12 ], [ -4, %10 ], [ -4, %5 ], [ -4, %26 ], [ -4, %23 ], [ -4, %20 ], [ -4, %17 ], [ -4, %14 ]
  call void @llvm.lifetime.end.p0(i64 16, ptr nonnull %7) #3
  call void @llvm.lifetime.end.p0(i64 16, ptr nonnull %6) #3
  ret i32 %.0
}